target datalayout = "e-m:e-p270:32:32-p271:32:32-p272:64:64-i64:64-i128:128-f80:128-n8:16:32:64-S128"
target triple = "x86_64-pc-linux-gnu"

%struct.strbuf = type { i64, i64, ptr }
%struct.notes_merge_options = type { ptr, ptr, ptr, %struct.strbuf, i32, i32, i8 }

; Function Attrs: nounwind uwtable
define dso_local void @init_notes_merge_options(ptr noundef %0, ptr noundef %1) #0 {
  %3 = alloca ptr, align 8
  %4 = alloca ptr, align 8
  store ptr %0, ptr %3, align 8, !tbaa !4
  store ptr %1, ptr %4, align 8, !tbaa !9
  %5 = load ptr, ptr %4, align 8, !tbaa !9
  call void @llvm.memset.p0.i64(ptr align 8 %5, i8 0, i64 64, i1 false)
  %6 = load ptr, ptr %4, align 8, !tbaa !9
  %7 = getelementptr inbounds nuw %struct.notes_merge_options, ptr %6, i32 0, i32 3
  call void @strbuf_init(ptr noundef %7, i64 noundef 0)
  %8 = load ptr, ptr %4, align 8, !tbaa !9
  %9 = getelementptr inbounds nuw %struct.notes_merge_options, ptr %8, i32 0, i32 4
  store i32 2, ptr %9, align 8, !tbaa !11
  %10 = load ptr, ptr %3, align 8, !tbaa !4
  %11 = load ptr, ptr %4, align 8, !tbaa !9
  %12 = getelementptr inbounds nuw %struct.notes_merge_options, ptr %11, i32 0, i32 0
  store ptr %10, ptr %12, align 8, !tbaa !17
  ret void
}