; Function Attrs: nounwind uwtable
define dso_local void @init_notes_merge_options(ptr noundef %0, ptr noundef initializes((0, 64)) %1) local_unnamed_addr #0 {
  tail call void @llvm.memset.p0.i64(ptr noundef nonnull align 8 dereferenceable(64) %1, i8 0, i64 64, i1 false)
  %3 = getelementptr inbounds nuw i8, ptr %1, i64 24
  tail call void @strbuf_init(ptr noundef nonnull %3, i64 noundef 0) #17
  %4 = getelementptr inbounds nuw i8, ptr %1, i64 48
  store i32 2, ptr %4, align 8, !tbaa !4
  store ptr %0, ptr %1, align 8, !tbaa !14
  ret void
}